target datalayout = "e-m:e-p270:32:32-p271:32:32-p272:64:64-i64:64-i128:128-f80:128-n8:16:32:64-S128"
target triple = "x86_64-pc-linux-gnu"

%struct._address = type { i32, i32, ptr, ptr }
%struct._packet_info = type { ptr, ptr, i32, i32, %struct.nstime_t, %struct.nstime_t, %struct.nstime_t, i8, ptr, ptr, ptr, ptr, %struct._address, %struct._address, %struct._address, %struct._address, %struct._address, %struct._address, i32, ptr, i8, [3 x i8], %struct.anon, i32, i32, i32, i32, ptr, i8, ptr, ptr, i16, i16, i32, i32, i16, i32, i32, ptr, ptr, ptr, i8, i8, i16, i16, i16, i32, i16, i16, ptr, ptr, ptr, ptr, ptr, i32, i32 }
%struct.nstime_t = type { i64, i32 }
%struct.anon = type { i8, [3 x i8] }

@shared_secret = internal global ptr @.str.115, align 8

; Function Attrs: alwaysinline nounwind
define internal ptr @memcpy.inline(ptr noalias %0, ptr noalias %1, i64 %2) #3 {
  %4 = alloca ptr, align 8
  %5 = alloca ptr, align 8
  %6 = alloca i64, align 8
  store ptr %0, ptr %4, align 8
  store ptr %1, ptr %5, align 8
  store i64 %2, ptr %6, align 8
  %7 = load ptr, ptr %4, align 8
  %8 = load ptr, ptr %5, align 8
  %9 = load i64, ptr %6, align 8
  %10 = load ptr, ptr %4, align 8
  %11 = call i64 @llvm.objectsize.i64.p0(ptr %10, i1 false, i1 true, i1 true)
  %12 = call ptr @__memcpy_chk(ptr noundef %7, ptr noundef %8, i64 noundef %9, i64 noundef %11) #17
  ret ptr %12
}

; Function Attrs: null_pointer_is_valid sspstrong uwtable
define internal void @radius_decrypt_avp(ptr noundef %0, ptr noundef %1, ptr noundef %2, i32 noundef %3, i32 noundef %4, ptr noundef %5, ptr noundef %6, i32 noundef %7, i32 noundef %8) #0 {
  %10 = alloca ptr, align 8
  %11 = alloca ptr, align 8
  %12 = alloca ptr, align 8
  %13 = alloca i32, align 4
  %14 = alloca i32, align 4
  %15 = alloca ptr, align 8
  %16 = alloca ptr, align 8
  %17 = alloca i32, align 4
  %18 = alloca i32, align 4
  %19 = alloca ptr, align 8
  %20 = alloca [16 x i8], align 16
  %21 = alloca i32, align 4
  %22 = alloca i32, align 4
  %23 = alloca i32, align 4
  %24 = alloca ptr, align 8
  %25 = alloca i32, align 4
  store ptr %0, ptr %10, align 8
  store ptr %1, ptr %11, align 8
  store ptr %2, ptr %12, align 8
  store i32 %3, ptr %13, align 4
  store i32 %4, ptr %14, align 4
  store ptr %5, ptr %15, align 8
  store ptr %6, ptr %16, align 8
  store i32 %7, ptr %17, align 4
  store i32 %8, ptr %18, align 4
  call void @llvm.lifetime.start.p0(i64 8, ptr %19) #17
  call void @llvm.lifetime.start.p0(i64 16, ptr %20) #17
  call void @llvm.lifetime.start.p0(i64 4, ptr %21) #17
  call void @llvm.lifetime.start.p0(i64 4, ptr %22) #17
  call void @llvm.lifetime.start.p0(i64 4, ptr %23) #17
  call void @llvm.lifetime.start.p0(i64 8, ptr %24) #17
  %26 = call i32 @gcry_md_open(ptr noundef %19, i32 noundef 1, i32 noundef 0)
  %27 = icmp ne i32 %26, 0
  br i1 %27, label %28, label %29

28:                                               ; preds = %9
  store i32 1, ptr %25, align 4
  br label %146

29:                                               ; preds = %9
  %30 = load i32, ptr %18, align 4
  %31 = icmp eq i32 %30, 3
  br i1 %31, label %32, label %41

32:                                               ; preds = %29
  %33 = load ptr, ptr %19, align 8
  %34 = load ptr, ptr %15, align 8
  call void @gcry_md_write(ptr noundef %33, ptr noundef %34, i64 noundef 16)
  %35 = load ptr, ptr %19, align 8
  %36 = load ptr, ptr @shared_secret, align 8
  %37 = load ptr, ptr @shared_secret, align 8
  %38 = call i64 @strlen(ptr noundef %37) #22
  %39 = trunc i64 %38 to i32
  %40 = sext i32 %39 to i64
  call void @gcry_md_write(ptr noundef %35, ptr noundef %36, i64 noundef %40)
  br label %54

41:                                               ; preds = %29
  %42 = load ptr, ptr %19, align 8
  %43 = load ptr, ptr @shared_secret, align 8
  %44 = load ptr, ptr @shared_secret, align 8
  %45 = call i64 @strlen(ptr noundef %44) #22
  %46 = trunc i64 %45 to i32
  %47 = sext i32 %46 to i64
  call void @gcry_md_write(ptr noundef %42, ptr noundef %43, i64 noundef %47)
  %48 = load ptr, ptr %19, align 8
  %49 = load ptr, ptr %15, align 8
  call void @gcry_md_write(ptr noundef %48, ptr noundef %49, i64 noundef 16)
  %50 = load ptr, ptr %19, align 8
  %51 = load ptr, ptr %16, align 8
  %52 = load i32, ptr %17, align 4
  %53 = sext i32 %52 to i64
  call void @gcry_md_write(ptr noundef %50, ptr noundef %51, i64 noundef %53)
  br label %54

54:                                               ; preds = %41, %32
  %55 = getelementptr inbounds [16 x i8], ptr %20, i64 0, i64 0
  %56 = load ptr, ptr %19, align 8
  %57 = call ptr @gcry_md_read(ptr noundef %56, i32 noundef 0)
  %58 = call ptr @memcpy.inline(ptr noundef %55, ptr noundef %57, i64 noundef 16) #17
  %59 = load i32, ptr %14, align 4
  %60 = load i32, ptr %14, align 4
  %61 = srem i32 %60, 16
  %62 = icmp ne i32 %61, 0
  br i1 %62, label %63, label %67

63:                                               ; preds = %54
  %64 = load i32, ptr %14, align 4
  %65 = srem i32 %64, 16
  %66 = sub i32 16, %65
  br label %68

67:                                               ; preds = %54
  br label %68

68:                                               ; preds = %67, %63
  %69 = phi i32 [ %66, %63 ], [ 0, %67 ]
  %70 = add i32 %59, %69
  store i32 %70, ptr %23, align 4
  %71 = load ptr, ptr %11, align 8
  %72 = getelementptr inbounds nuw %struct._packet_info, ptr %71, i32 0, i32 51
  %73 = load ptr, ptr %72, align 8
  %74 = load i32, ptr %23, align 4
  %75 = sext i32 %74 to i64
  %76 = call noalias ptr @wmem_alloc0(ptr noundef %73, i64 noundef %75) #21
  store ptr %76, ptr %24, align 8
  %77 = load ptr, ptr %12, align 8
  %78 = load ptr, ptr %24, align 8
  %79 = load i32, ptr %13, align 4
  %80 = load i32, ptr %14, align 4
  %81 = sext i32 %80 to i64
  %82 = call ptr @tvb_memcpy(ptr noundef %77, ptr noundef %78, i32 noundef %79, i64 noundef %81)
  store i32 0, ptr %21, align 4
  br label %83

83:                                               ; preds = %141, %68
  %84 = load i32, ptr %21, align 4
  %85 = load i32, ptr %23, align 4
  %86 = icmp slt i32 %84, %85
  br i1 %86, label %87, label %144

87:                                               ; preds = %83
  store i32 0, ptr %22, align 4
  br label %88

88:                                               ; preds = %121, %87
  %89 = load i32, ptr %22, align 4
  %90 = icmp slt i32 %89, 16
  br i1 %90, label %91, label %97

91:                                               ; preds = %88
  %92 = load i32, ptr %21, align 4
  %93 = load i32, ptr %22, align 4
  %94 = add i32 %92, %93
  %95 = load i32, ptr %14, align 4
  %96 = icmp slt i32 %94, %95
  br label %97

97:                                               ; preds = %91, %88
  %98 = phi i1 [ false, %88 ], [ %96, %91 ]
  br i1 %98, label %99, label %124

99:                                               ; preds = %97
  %100 = load ptr, ptr %24, align 8
  %101 = load i32, ptr %21, align 4
  %102 = load i32, ptr %22, align 4
  %103 = add i32 %101, %102
  %104 = sext i32 %103 to i64
  %105 = getelementptr i8, ptr %100, i64 %104
  %106 = load i8, ptr %105, align 1
  %107 = zext i8 %106 to i32
  %108 = load i32, ptr %22, align 4
  %109 = sext i32 %108 to i64
  %110 = getelementptr [16 x i8], ptr %20, i64 0, i64 %109
  %111 = load i8, ptr %110, align 1
  %112 = zext i8 %111 to i32
  %113 = xor i32 %107, %112
  %114 = trunc i32 %113 to i8
  %115 = load ptr, ptr %10, align 8
  %116 = load i32, ptr %21, align 4
  %117 = load i32, ptr %22, align 4
  %118 = add i32 %116, %117
  %119 = sext i32 %118 to i64
  %120 = getelementptr i8, ptr %115, i64 %119
  store i8 %114, ptr %120, align 1
  br label %121

121:                                              ; preds = %99
  %122 = load i32, ptr %22, align 4
  %123 = add i32 %122, 1
  store i32 %123, ptr %22, align 4
  br label %88, !llvm.loop !14

124:                                              ; preds = %97
  %125 = load ptr, ptr %19, align 8
  call void @gcry_md_reset(ptr noundef %125)
  %126 = load ptr, ptr %19, align 8
  %127 = load ptr, ptr @shared_secret, align 8
  %128 = load ptr, ptr @shared_secret, align 8
  %129 = call i64 @strlen(ptr noundef %128) #22
  %130 = trunc i64 %129 to i32
  %131 = sext i32 %130 to i64
  call void @gcry_md_write(ptr noundef %126, ptr noundef %127, i64 noundef %131)
  %132 = load ptr, ptr %19, align 8
  %133 = load ptr, ptr %24, align 8
  %134 = load i32, ptr %21, align 4
  %135 = sext i32 %134 to i64
  %136 = getelementptr i8, ptr %133, i64 %135
  call void @gcry_md_write(ptr noundef %132, ptr noundef %136, i64 noundef 16)
  %137 = getelementptr inbounds [16 x i8], ptr %20, i64 0, i64 0
  %138 = load ptr, ptr %19, align 8
  %139 = call ptr @gcry_md_read(ptr noundef %138, i32 noundef 0)
  %140 = call ptr @memcpy.inline(ptr noundef %137, ptr noundef %139, i64 noundef 16) #17
  br label %141

141:                                              ; preds = %124
  %142 = load i32, ptr %21, align 4
  %143 = add i32 %142, 16
  store i32 %143, ptr %21, align 4
  br label %83, !llvm.loop !15

144:                                              ; preds = %83
  %145 = load ptr, ptr %19, align 8
  call void @gcry_md_close(ptr noundef %145)
  store i32 0, ptr %25, align 4
  br label %146

146:                                              ; preds = %144, %28
  call void @llvm.lifetime.end.p0(i64 8, ptr %24) #17
  call void @llvm.lifetime.end.p0(i64 4, ptr %23) #17
  call void @llvm.lifetime.end.p0(i64 4, ptr %22) #17
  call void @llvm.lifetime.end.p0(i64 4, ptr %21) #17
  call void @llvm.lifetime.end.p0(i64 16, ptr %20) #17
  call void @llvm.lifetime.end.p0(i64 8, ptr %19) #17
  %147 = load i32, ptr %25, align 4
  switch i32 %147, label %149 [
    i32 0, label %148
    i32 1, label %148
  ]

148:                                              ; preds = %146, %146
  ret void

149:                                              ; preds = %146
  unreachable
}