; Function Attrs: null_pointer_is_valid sspstrong uwtable
define internal fastcc void @radius_decrypt_avp(ptr noundef writeonly captures(none) %0, ptr noundef readonly captures(none) %1, ptr noundef %2, i32 noundef %3, i32 noundef %4, ptr noundef nonnull %5, ptr noundef %6, i32 noundef range(i32 0, 3) %7, i32 noundef range(i32 1, 4) %8) unnamed_addr #0 {
  %10 = alloca ptr, align 8
  %11 = alloca [16 x i8], align 16
  call void @llvm.lifetime.start.p0(i64 8, ptr nonnull %10) #14
  call void @llvm.lifetime.start.p0(i64 16, ptr nonnull %11) #14
  %12 = call i32 @gcry_md_open(ptr noundef nonnull %10, i32 noundef 1, i32 noundef 0)
  %.not = icmp eq i32 %12, 0
  br i1 %.not, label %13, label %64

13:                                               ; preds = %9
  %14 = icmp eq i32 %8, 3
  %15 = load ptr, ptr %10, align 8
  br i1 %14, label %16, label %21

16:                                               ; preds = %13
  call void @gcry_md_write(ptr noundef %15, ptr noundef nonnull %5, i64 noundef 16)
  %17 = load ptr, ptr %10, align 8
  %18 = load ptr, ptr @shared_secret, align 8
  %19 = call i64 @strlen(ptr noundef %18) #18
  %sext33 = shl i64 %19, 32
  %20 = ashr exact i64 %sext33, 32
  call void @gcry_md_write(ptr noundef %17, ptr noundef %18, i64 noundef %20)
  br label %28

21:                                               ; preds = %13
  %22 = load ptr, ptr @shared_secret, align 8
  %23 = call i64 @strlen(ptr noundef %22) #18
  %sext = shl i64 %23, 32
  %24 = ashr exact i64 %sext, 32
  call void @gcry_md_write(ptr noundef %15, ptr noundef %22, i64 noundef %24)
  %25 = load ptr, ptr %10, align 8
  call void @gcry_md_write(ptr noundef %25, ptr noundef nonnull %5, i64 noundef 16)
  %26 = load ptr, ptr %10, align 8
  %27 = zext nneg i32 %7 to i64
  call void @gcry_md_write(ptr noundef %26, ptr noundef %6, i64 noundef %27)
  br label %28

28:                                               ; preds = %21, %16
  %29 = load ptr, ptr %10, align 8
  %30 = call ptr @gcry_md_read(ptr noundef %29, i32 noundef 0)
  call void @llvm.memcpy.p0.p0.i64(ptr noundef nonnull align 16 dereferenceable(16) %11, ptr noundef align 1 dereferenceable(16) %30, i64 noundef 16, i1 noundef false) #14
  %31 = srem i32 %4, 16
  %.not34 = icmp eq i32 %31, 0
  %32 = sub nsw i32 16, %31
  %spec.select = select i1 %.not34, i32 0, i32 %32
  %33 = add i32 %spec.select, %4
  %34 = getelementptr inbounds nuw i8, ptr %1, i64 408
  %35 = load ptr, ptr %34, align 8
  %36 = sext i32 %33 to i64
  %37 = call noalias ptr @wmem_alloc0(ptr noundef %35, i64 noundef %36) #17
  %38 = sext i32 %4 to i64
  %39 = call ptr @tvb_memcpy(ptr noundef %2, ptr noundef %37, i32 noundef %3, i64 noundef %38)
  %40 = icmp sgt i32 %33, 0
  br i1 %40, label %.preheader, label %._crit_edge

.preheader:                                       ; preds = %28, %.critedge
  %.037 = phi i32 [ %61, %.critedge ], [ 0, %28 ]
  %41 = sext i32 %.037 to i64
  br label %42

42:                                               ; preds = %.preheader, %45
  %indvars.iv = phi i64 [ 0, %.preheader ], [ %indvars.iv.next, %45 ]
  %43 = or disjoint i64 %indvars.iv, %41
  %44 = icmp slt i64 %43, %38
  br i1 %44, label %45, label %.critedge

45:                                               ; preds = %42
  %46 = getelementptr i8, ptr %37, i64 %43
  %47 = load i8, ptr %46, align 1
  %48 = getelementptr [16 x i8], ptr %11, i64 0, i64 %indvars.iv
  %49 = load i8, ptr %48, align 1
  %50 = xor i8 %49, %47
  %51 = getelementptr i8, ptr %0, i64 %43
  store i8 %50, ptr %51, align 1
  %indvars.iv.next = add nuw nsw i64 %indvars.iv, 1
  %exitcond.not = icmp eq i64 %indvars.iv.next, 16
  br i1 %exitcond.not, label %.critedge, label %42, !llvm.loop !13

.critedge:                                        ; preds = %45, %42
  %52 = load ptr, ptr %10, align 8
  call void @gcry_md_reset(ptr noundef %52)
  %53 = load ptr, ptr %10, align 8
  %54 = load ptr, ptr @shared_secret, align 8
  %55 = call i64 @strlen(ptr noundef %54) #18
  %sext35 = shl i64 %55, 32
  %56 = ashr exact i64 %sext35, 32
  call void @gcry_md_write(ptr noundef %53, ptr noundef %54, i64 noundef %56)
  %57 = load ptr, ptr %10, align 8
  %58 = getelementptr i8, ptr %37, i64 %41
  call void @gcry_md_write(ptr noundef %57, ptr noundef %58, i64 noundef 16)
  %59 = load ptr, ptr %10, align 8
  %60 = call ptr @gcry_md_read(ptr noundef %59, i32 noundef 0)
  call void @llvm.memcpy.p0.p0.i64(ptr noundef nonnull align 16 dereferenceable(16) %11, ptr noundef align 1 dereferenceable(16) %60, i64 noundef 16, i1 noundef false) #14
  %61 = add i32 %.037, 16
  %62 = icmp slt i32 %61, %33
  br i1 %62, label %.preheader, label %._crit_edge, !llvm.loop !14

._crit_edge:                                      ; preds = %.critedge, %28
  %63 = load ptr, ptr %10, align 8
  call void @gcry_md_close(ptr noundef %63)
  br label %64

64:                                               ; preds = %9, %._crit_edge
  call void @llvm.lifetime.end.p0(i64 16, ptr nonnull %11) #14
  call void @llvm.lifetime.end.p0(i64 8, ptr nonnull %10) #14
  ret void
}